; Function Attrs: nounwind sspstrong uwtable
define dso_local i64 @rb_obj_alloc(i64 noundef %0) local_unnamed_addr #2 {
  %2 = icmp eq i64 %0, 0
  %3 = and i64 %0, 7
  %4 = icmp ne i64 %3, 0
  %5 = or i1 %2, %4
  br i1 %5, label %rbimpl_RB_TYPE_P_fastpath.exit.thread.i, label %6, !prof !39

6:                                                ; preds = %1
  %7 = inttoptr i64 %0 to ptr
  %8 = load i64, ptr %7, align 8, !tbaa !24
  %9 = and i64 %8, 31
  %10 = icmp eq i64 %9, 2
  br i1 %10, label %Check_Type.exit, label %rbimpl_RB_TYPE_P_fastpath.exit.thread.i, !prof !40

rbimpl_RB_TYPE_P_fastpath.exit.thread.i:          ; preds = %6, %1
  tail call void @rb_unexpected_type(i64 noundef %0, i32 noundef 2) #25
  unreachable

Check_Type.exit:                                  ; preds = %6
  %11 = tail call fastcc i64 @rb_class_alloc(i64 noundef %0)
  ret i64 %11
}